target datalayout = "e-m:e-p270:32:32-p271:32:32-p272:64:64-i64:64-i128:128-f80:128-n8:16:32:64-S128"
target triple = "x86_64-pc-linux-gnu"

; Function Attrs: nounwind uwtable
define void @ff_matrix_mul_3x3(ptr noundef %0, ptr noundef %1, ptr noundef %2) #0 {
  %4 = alloca ptr, align 8
  %5 = alloca ptr, align 8
  %6 = alloca ptr, align 8
  %7 = alloca i32, align 4
  %8 = alloca i32, align 4
  store ptr %0, ptr %4, align 8, !tbaa !4
  store ptr %1, ptr %5, align 8, !tbaa !4
  store ptr %2, ptr %6, align 8, !tbaa !4
  call void @llvm.lifetime.start.p0(i64 4, ptr %7) #7
  call void @llvm.lifetime.start.p0(i64 4, ptr %8) #7
  store i32 0, ptr %7, align 4, !tbaa !11
  br label %9

9:                                                ; preds = %67, %3
  %10 = load i32, ptr %7, align 4, !tbaa !11
  %11 = icmp slt i32 %10, 3
  br i1 %11, label %12, label %70

12:                                               ; preds = %9
  store i32 0, ptr %8, align 4, !tbaa !11
  br label %13

13:                                               ; preds = %63, %12
  %14 = load i32, ptr %8, align 4, !tbaa !11
  %15 = icmp slt i32 %14, 3
  br i1 %15, label %16, label %66

16:                                               ; preds = %13
  %17 = load ptr, ptr %6, align 8, !tbaa !4
  %18 = load i32, ptr %7, align 4, !tbaa !11
  %19 = sext i32 %18 to i64
  %20 = getelementptr inbounds [3 x double], ptr %17, i64 %19
  %21 = getelementptr inbounds [3 x double], ptr %20, i64 0, i64 0
  %22 = load double, ptr %21, align 8, !tbaa !9
  %23 = load ptr, ptr %5, align 8, !tbaa !4
  %24 = getelementptr inbounds [3 x double], ptr %23, i64 0
  %25 = load i32, ptr %8, align 4, !tbaa !11
  %26 = sext i32 %25 to i64
  %27 = getelementptr inbounds [3 x double], ptr %24, i64 0, i64 %26
  %28 = load double, ptr %27, align 8, !tbaa !9
  %29 = load ptr, ptr %6, align 8, !tbaa !4
  %30 = load i32, ptr %7, align 4, !tbaa !11
  %31 = sext i32 %30 to i64
  %32 = getelementptr inbounds [3 x double], ptr %29, i64 %31
  %33 = getelementptr inbounds [3 x double], ptr %32, i64 0, i64 1
  %34 = load double, ptr %33, align 8, !tbaa !9
  %35 = load ptr, ptr %5, align 8, !tbaa !4
  %36 = getelementptr inbounds [3 x double], ptr %35, i64 1
  %37 = load i32, ptr %8, align 4, !tbaa !11
  %38 = sext i32 %37 to i64
  %39 = getelementptr inbounds [3 x double], ptr %36, i64 0, i64 %38
  %40 = load double, ptr %39, align 8, !tbaa !9
  %41 = fmul nsz double %34, %40
  %42 = call nsz double @llvm.fmuladd.f64(double %22, double %28, double %41)
  %43 = load ptr, ptr %6, align 8, !tbaa !4
  %44 = load i32, ptr %7, align 4, !tbaa !11
  %45 = sext i32 %44 to i64
  %46 = getelementptr inbounds [3 x double], ptr %43, i64 %45
  %47 = getelementptr inbounds [3 x double], ptr %46, i64 0, i64 2
  %48 = load double, ptr %47, align 8, !tbaa !9
  %49 = load ptr, ptr %5, align 8, !tbaa !4
  %50 = getelementptr inbounds [3 x double], ptr %49, i64 2
  %51 = load i32, ptr %8, align 4, !tbaa !11
  %52 = sext i32 %51 to i64
  %53 = getelementptr inbounds [3 x double], ptr %50, i64 0, i64 %52
  %54 = load double, ptr %53, align 8, !tbaa !9
  %55 = call nsz double @llvm.fmuladd.f64(double %48, double %54, double %42)
  %56 = load ptr, ptr %4, align 8, !tbaa !4
  %57 = load i32, ptr %7, align 4, !tbaa !11
  %58 = sext i32 %57 to i64
  %59 = getelementptr inbounds [3 x double], ptr %56, i64 %58
  %60 = load i32, ptr %8, align 4, !tbaa !11
  %61 = sext i32 %60 to i64
  %62 = getelementptr inbounds [3 x double], ptr %59, i64 0, i64 %61
  store double %55, ptr %62, align 8, !tbaa !9
  br label %63

63:                                               ; preds = %16
  %64 = load i32, ptr %8, align 4, !tbaa !11
  %65 = add nsw i32 %64, 1
  store i32 %65, ptr %8, align 4, !tbaa !11
  br label %13, !llvm.loop !16

66:                                               ; preds = %13
  br label %67

67:                                               ; preds = %66
  %68 = load i32, ptr %7, align 4, !tbaa !11
  %69 = add nsw i32 %68, 1
  store i32 %69, ptr %7, align 4, !tbaa !11
  br label %9, !llvm.loop !17

70:                                               ; preds = %9
  call void @llvm.lifetime.end.p0(i64 4, ptr %8) #7
  call void @llvm.lifetime.end.p0(i64 4, ptr %7) #7
  ret void
}