; Function Attrs: nofree norecurse nosync nounwind memory(argmem: readwrite) uwtable
define void @ff_matrix_mul_3x3(ptr noundef writeonly captures(none) %0, ptr noundef readonly captures(none) %1, ptr noundef readonly captures(none) %2) local_unnamed_addr #0 {
  %4 = getelementptr inbounds nuw i8, ptr %1, i64 24
  %5 = getelementptr inbounds nuw i8, ptr %1, i64 48
  br label %.preheader

.preheader:                                       ; preds = %3, %23
  %indvars.iv22 = phi i64 [ 0, %3 ], [ %indvars.iv.next23, %23 ]
  %6 = getelementptr inbounds nuw [3 x double], ptr %2, i64 %indvars.iv22
  %7 = getelementptr inbounds nuw i8, ptr %6, i64 8
  %8 = getelementptr inbounds nuw i8, ptr %6, i64 16
  br label %9

9:                                                ; preds = %.preheader, %9
  %indvars.iv = phi i64 [ 0, %.preheader ], [ %indvars.iv.next, %9 ]
  %10 = load double, ptr %6, align 8, !tbaa !4
  %11 = getelementptr inbounds nuw [3 x double], ptr %1, i64 0, i64 %indvars.iv
  %12 = load double, ptr %11, align 8, !tbaa !4
  %13 = load double, ptr %7, align 8, !tbaa !4
  %14 = getelementptr inbounds nuw [3 x double], ptr %4, i64 0, i64 %indvars.iv
  %15 = load double, ptr %14, align 8, !tbaa !4
  %16 = fmul nsz double %13, %15
  %17 = tail call nsz double @llvm.fmuladd.f64(double %10, double %12, double %16)
  %18 = load double, ptr %8, align 8, !tbaa !4
  %19 = getelementptr inbounds nuw [3 x double], ptr %5, i64 0, i64 %indvars.iv
  %20 = load double, ptr %19, align 8, !tbaa !4
  %21 = tail call nsz double @llvm.fmuladd.f64(double %18, double %20, double %17)
  %22 = getelementptr inbounds nuw [3 x double], ptr %0, i64 %indvars.iv22, i64 %indvars.iv
  store double %21, ptr %22, align 8, !tbaa !4
  %indvars.iv.next = add nuw nsw i64 %indvars.iv, 1
  %exitcond.not = icmp eq i64 %indvars.iv.next, 3
  br i1 %exitcond.not, label %23, label %9, !llvm.loop !11

23:                                               ; preds = %9
  %indvars.iv.next23 = add nuw nsw i64 %indvars.iv22, 1
  %exitcond25.not = icmp eq i64 %indvars.iv.next23, 3
  br i1 %exitcond25.not, label %24, label %.preheader, !llvm.loop !12

24:                                               ; preds = %23
  ret void
}